target datalayout = "e-m:e-p270:32:32-p271:32:32-p272:64:64-i64:64-i128:128-f80:128-n8:16:32:64-S128"
target triple = "x86_64-pc-linux-gnu"

@.str.13 = private unnamed_addr constant [7 x i32] [i32 63, i32 42, i32 60, i32 62, i32 124, i32 34, i32 0], align 4
@.str.14 = private unnamed_addr constant [3 x i32] [i32 63, i32 42, i32 0], align 4

; Function Attrs: mustprogress nounwind uwtable
define noundef zeroext i1 @_Z9IsPathDivi(i32 noundef %0) #2 {
  %2 = alloca i32, align 4
  store i32 %0, ptr %2, align 4
  %3 = load i32, ptr %2, align 4
  %4 = icmp eq i32 %3, 47
  ret i1 %4
}

; Function Attrs: mustprogress nounwind uwtable
define void @_Z14MakeNameUsablePwb(ptr noundef %0, i1 noundef zeroext %1) #2 {
  %3 = alloca ptr, align 8
  %4 = alloca i8, align 1
  %5 = alloca ptr, align 8
  store ptr %0, ptr %3, align 8
  %6 = zext i1 %1 to i8
  store i8 %6, ptr %4, align 1
  %7 = load ptr, ptr %3, align 8
  store ptr %7, ptr %5, align 8
  br label %8

8:                                                ; preds = %55, %2
  %9 = load ptr, ptr %5, align 8
  %10 = load i32, ptr %9, align 4
  %11 = icmp ne i32 %10, 0
  br i1 %11, label %12, label %58

12:                                               ; preds = %8
  %13 = load i8, ptr %4, align 1
  %14 = trunc i8 %13 to i1
  %15 = select i1 %14, ptr @.str.13, ptr @.str.14
  %16 = load ptr, ptr %5, align 8
  %17 = load i32, ptr %16, align 4
  %18 = call ptr @wcschr(ptr noundef %15, i32 noundef signext %17) #6
  %19 = icmp ne ptr %18, null
  br i1 %19, label %27, label %20

20:                                               ; preds = %12
  %21 = load i8, ptr %4, align 1
  %22 = trunc i8 %21 to i1
  br i1 %22, label %23, label %29

23:                                               ; preds = %20
  %24 = load ptr, ptr %5, align 8
  %25 = load i32, ptr %24, align 4
  %26 = icmp ult i32 %25, 32
  br i1 %26, label %27, label %29

27:                                               ; preds = %23, %12
  %28 = load ptr, ptr %5, align 8
  store i32 95, ptr %28, align 4
  br label %29

29:                                               ; preds = %27, %23, %20
  %30 = load i8, ptr %4, align 1
  %31 = trunc i8 %30 to i1
  br i1 %31, label %32, label %54

32:                                               ; preds = %29
  %33 = load ptr, ptr %5, align 8
  %34 = load i32, ptr %33, align 4
  %35 = icmp eq i32 %34, 58
  br i1 %35, label %36, label %38

36:                                               ; preds = %32
  %37 = load ptr, ptr %5, align 8
  store i32 95, ptr %37, align 4
  br label %38

38:                                               ; preds = %36, %32
  %39 = load ptr, ptr %5, align 8
  %40 = load i32, ptr %39, align 4
  %41 = icmp eq i32 %40, 32
  br i1 %41, label %46, label %42

42:                                               ; preds = %38
  %43 = load ptr, ptr %5, align 8
  %44 = load i32, ptr %43, align 4
  %45 = icmp eq i32 %44, 46
  br i1 %45, label %46, label %53

46:                                               ; preds = %42, %38
  %47 = load ptr, ptr %5, align 8
  %48 = getelementptr inbounds i32, ptr %47, i64 1
  %49 = load i32, ptr %48, align 4
  %50 = call noundef zeroext i1 @_Z9IsPathDivi(i32 noundef %49)
  br i1 %50, label %51, label %53

51:                                               ; preds = %46
  %52 = load ptr, ptr %5, align 8
  store i32 95, ptr %52, align 4
  br label %53

53:                                               ; preds = %51, %46, %42
  br label %54

54:                                               ; preds = %53, %29
  br label %55

55:                                               ; preds = %54
  %56 = load ptr, ptr %5, align 8
  %57 = getelementptr inbounds i32, ptr %56, i32 1
  store ptr %57, ptr %5, align 8
  br label %8, !llvm.loop !18

58:                                               ; preds = %8
  ret void
}