; Function Attrs: mustprogress nofree nounwind memory(read, argmem: readwrite) uwtable
define void @_Z14MakeNameUsablePwb(ptr noundef captures(none) %0, i1 noundef zeroext %1) local_unnamed_addr #12 {
  %3 = load i32, ptr %0, align 4
  %.not18 = icmp eq i32 %3, 0
  br i1 %.not18, label %._crit_edge, label %.lr.ph

.lr.ph:                                           ; preds = %2
  %4 = select i1 %1, ptr @.str.13, ptr @.str.14
  br i1 %1, label %.lr.ph.split.us, label %.lr.ph.split

.lr.ph.split.us:                                  ; preds = %.lr.ph, %13
  %5 = phi i32 [ %15, %13 ], [ %3, %.lr.ph ]
  %.019.us = phi ptr [ %14, %13 ], [ %0, %.lr.ph ]
  %6 = tail call ptr @wcschr(ptr noundef nonnull %4, i32 noundef signext %5) #18
  %.not16.us = icmp ne ptr %6, null
  %7 = icmp ult i32 %5, 32
  %or.cond17.us = or i1 %7, %.not16.us
  br i1 %or.cond17.us, label %.sink.split, label %8

8:                                                ; preds = %.lr.ph.split.us
  switch i32 %5, label %13 [
    i32 58, label %.sink.split
    i32 32, label %9
    i32 46, label %9
  ]

9:                                                ; preds = %8, %8
  %10 = getelementptr inbounds nuw i8, ptr %.019.us, i64 4
  %11 = load i32, ptr %10, align 4
  %12 = icmp eq i32 %11, 47
  br i1 %12, label %.sink.split, label %13

.sink.split:                                      ; preds = %8, %9, %.lr.ph.split.us
  store i32 95, ptr %.019.us, align 4
  br label %13

13:                                               ; preds = %.sink.split, %9, %8
  %14 = getelementptr inbounds nuw i8, ptr %.019.us, i64 4
  %15 = load i32, ptr %14, align 4
  %.not.us = icmp eq i32 %15, 0
  br i1 %.not.us, label %._crit_edge, label %.lr.ph.split.us, !llvm.loop !18

.lr.ph.split:                                     ; preds = %.lr.ph, %19
  %16 = phi i32 [ %21, %19 ], [ %3, %.lr.ph ]
  %.019 = phi ptr [ %20, %19 ], [ %0, %.lr.ph ]
  %17 = tail call ptr @wcschr(ptr noundef nonnull %4, i32 noundef signext %16) #18
  %.not16.not = icmp eq ptr %17, null
  br i1 %.not16.not, label %19, label %18

18:                                               ; preds = %.lr.ph.split
  store i32 95, ptr %.019, align 4
  br label %19

19:                                               ; preds = %.lr.ph.split, %18
  %20 = getelementptr inbounds nuw i8, ptr %.019, i64 4
  %21 = load i32, ptr %20, align 4
  %.not = icmp eq i32 %21, 0
  br i1 %.not, label %._crit_edge, label %.lr.ph.split, !llvm.loop !18

._crit_edge:                                      ; preds = %19, %13, %2
  ret void
}